target datalayout = "e-m:e-p270:32:32-p271:32:32-p272:64:64-i64:64-i128:128-f80:128-n8:16:32:64-S128"
target triple = "x86_64-pc-linux-gnu"

%struct.dt_lib_module_info_t = type { ptr, i32, ptr, i32, ptr }
%struct._GdkEventButton = type { i32, ptr, i8, i32, double, double, ptr, i32, i32, ptr, double, double }

@.str.58 = private unnamed_addr constant [15 x i8] c"dt-preset-name\00", align 1

; Function Attrs: nounwind uwtable
define internal i32 @_menuitem_button_preset(ptr noundef %0, ptr noundef %1, ptr noundef %2) #0 {
  %4 = alloca i32, align 4
  %5 = alloca ptr, align 8
  %6 = alloca ptr, align 8
  %7 = alloca ptr, align 8
  store ptr %0, ptr %5, align 8, !tbaa !222
  store ptr %1, ptr %6, align 8, !tbaa !120
  store ptr %2, ptr %7, align 8, !tbaa !66
  %8 = load ptr, ptr %6, align 8, !tbaa !120
  %9 = getelementptr inbounds nuw %struct._GdkEventButton, ptr %8, i32 0, i32 8
  %10 = load i32, ptr %9, align 4, !tbaa !169
  %11 = icmp eq i32 %10, 1
  br i1 %11, label %12, label %13

12:                                               ; preds = %3
  store i32 0, ptr %4, align 4
  br label %20

13:                                               ; preds = %3
  %14 = load ptr, ptr %7, align 8, !tbaa !66
  %15 = getelementptr inbounds nuw %struct.dt_lib_module_info_t, ptr %14, i32 0, i32 4
  %16 = load ptr, ptr %15, align 8, !tbaa !122
  %17 = load ptr, ptr %5, align 8, !tbaa !222
  %18 = call ptr @g_type_check_instance_cast(ptr noundef %17, i64 noundef 80)
  %19 = call ptr @g_object_get_data(ptr noundef %18, ptr noundef @.str.58)
  call void @dt_shortcut_copy_lua(ptr noundef %16, ptr noundef %19)
  store i32 1, ptr %4, align 4
  br label %20

20:                                               ; preds = %13, %12
  %21 = load i32, ptr %4, align 4
  ret i32 %21
}