; Function Attrs: nounwind uwtable
define internal range(i32 0, 2) i32 @_menuitem_button_preset(ptr noundef %0, ptr noundef readonly captures(none) %1, ptr noundef readonly captures(none) %2) #0 {
  %4 = getelementptr inbounds nuw i8, ptr %1, i64 52
  %5 = load i32, ptr %4, align 4, !tbaa !142
  %6 = icmp eq i32 %5, 1
  br i1 %6, label %12, label %7

7:                                                ; preds = %3
  %8 = getelementptr inbounds nuw i8, ptr %2, i64 32
  %9 = load ptr, ptr %8, align 8, !tbaa !104
  %10 = tail call ptr @g_type_check_instance_cast(ptr noundef %0, i64 noundef 80) #19
  %11 = tail call ptr @g_object_get_data(ptr noundef %10, ptr noundef nonnull @.str.58) #19
  tail call void @dt_shortcut_copy_lua(ptr noundef %9, ptr noundef %11) #19
  br label %12

12:                                               ; preds = %3, %7
  %.0 = phi i32 [ 1, %7 ], [ 0, %3 ]
  ret i32 %.0
}